(dp1
S'output'
p2
S'missing "pass" in view'
p3
sS'layer'
p4
S'ParserContainer'
p5
sS'code'
p6
S'#extend \'layout.html\'\nresponse.write(\'\\r\\n<head>\\r\\n    <meta charset="utf-8">\\r\\n    <!-- www.phpied.com/conditional-comments-block-downloads/ -->\\r\\n    <!-- Always force latest IE rendering engine\\r\\n         (even in intranet) & Chrome Frame\\r\\n         Remove this if you use the .htaccess -->\\r\\n    <meta http-equiv="X-UA-Compatible" content="IE=edge\', escape=False)\nresponse.write(not request.is_local and \',chrome=1\' or \'\')\nresponse.write(\'">\\r\\n    <!--  Mobile Viewport Fix\\r\\n          j.mp/mobileviewport & davidbcalhoun.com/2010/viewport-metatag\\r\\n          device-width: Occupy full width of the screen in its current orientation\\r\\n          initial-scale = 1.0 retains dimensions instead of zooming out if page height > device height\\r\\n          user-scalable = yes allows the user to zoom in -->\\r\\n    <meta name="viewport" content="width=device-width, initial-scale=1.0">\\r\\n    <title>** Cronograma de Actividades **</title>\\r\\n    <!-- http://dev.w3.org/html5/markup/meta.name.html -->\\r\\n    <meta name="application-name" content="\', escape=False)\nresponse.write(request.application)\nresponse.write(\'">\\r\\n    <!-- Speaking of Google, don\\\'t forget to set your site up:\\r\\n         http://google.com/webmasters -->\\r\\n    <meta name="google-site-verification" content="">\\r\\n    <!-- include stylesheets -->\\r\\n    <link rel="stylesheet" href="\', escape=False)\nresponse.write(URL(\'static\',\'css/infoController.css\'))\nresponse.write(\'"/>\\r\\n    <!-- Material Lite -->\\r\\n    <!--<link rel="stylesheet" href="https://fonts.googleapis.com/icon?family=Material+Icons">\\r\\n\\t<link rel="stylesheet" href="https://code.getmdl.io/1.1.3/material.indigo-pink.min.css">-->\\r\\n    <!-- Bootstrap -->\\r\\n     <link rel="stylesheet" href="\', escape=False)\nresponse.write(URL(\'static\',\'css/bootstrap.min.css\'))\nresponse.write(\'"/>\\r\\n    <link rel="stylesheet" href="\', escape=False)\nresponse.write(URL(\'static\',\'css/web2py-bootstrap3.css\'))\nresponse.write(\'"/>\\r\\n    \\r\\n    <link rel="shortcut icon" href="\', escape=False)\nresponse.write(URL(\'static\',\'images/favicon.ico\'))\nresponse.write(\'" type="image/x-icon">\\r\\n    <link rel="apple-touch-icon" href="\', escape=False)\nresponse.write(URL(\'static\',\'images/favicon.png\'))\nresponse.write(\'">\\r\\n    <!-- All JavaScript at the bottom, except for Modernizr which enables\\r\\n         HTML5 elements & feature detects -->\\r\\n    <script src="\', escape=False)\nresponse.write(URL(\'static\',\'js/modernizr-2.8.3.min.js\'))\nresponse.write(\'"></script>\\r\\n    <!--[if lt IE 9]>\\r\\n        <script src="\', escape=False)\nresponse.write(URL(\'static\',\'js/respond-1.4.2.min.js\'))\nresponse.write(\'"></script>\\r\\n        <![endif]-->\\r\\n    <!-- Favicons -->\\r\\n    \', escape=False)\nresponse.write(\'<script type="text/javascript"><!--\\n    // These variables are used by the web2py_ajax_init function in web2py_ajax.js (which is loaded below).\\n    var w2p_ajax_confirm_message = "\', escape=False)\nresponse.write(T(\'Are you sure you want to delete this object?\'))\nresponse.write(\'";\\n    var w2p_ajax_disable_with_message = "\', escape=False)\nresponse.write(T(\'Working...\'))\nresponse.write(\'";\\n    var w2p_ajax_date_format = "\', escape=False)\nresponse.write(T(\'%Y-%m-%d\'))\nresponse.write(\'";\\n    var w2p_ajax_datetime_format = "\', escape=False)\nresponse.write(T(\'%Y-%m-%d %H:%M:%S\'))\nresponse.write(\'";\\n    var ajax_error_500 = \\\'\', escape=False)\nresponse.write(T.M(\'An error occured, please [[reload %s]] the page\') % URL(args=request.args, vars=request.get_vars))\nresponse.write("\'\\n    //--></script>\\n", escape=False)\nresponse.files.insert(0,URL(\'static\',\'js/jquery.js\'))\nresponse.files.insert(1,URL(\'static\',\'css/calendar.css\'))\nresponse.files.insert(2,URL(\'static\',\'js/calendar.js\'))\nresponse.files.insert(3,URL(\'static\',\'js/web2py.js\'))\nresponse.include_meta()\nresponse.include_files()\nresponse.write(\'\\n\', escape=False)\nresponse.write(\' <!-- this includes jquery.js, calendar.js/.css and web2py.js -->\\r\\n    \', escape=False)\nresponse.write(\'\\r\\n    \', escape=False)\n# using sidebars need to know what sidebar you want to use\nmc0 = \'col-md-12\'\nmc1 = \'col-md-9\'\nmc2 = \'col-md-6\'\nleft_sidebar_enabled = globals().get(\'left_sidebar_enabled\', False)\nright_sidebar_enabled = globals().get(\'right_sidebar_enabled\', False)\nmiddle_column = {0: mc0, 1: mc1, 2: mc2}[\n(left_sidebar_enabled and 1 or 0)+(right_sidebar_enabled and 1 or 0)]\nresponse.write(\'\\r\\n  </head>\\r\\n  <body>\\r\\n    <!-- Aca va mi Codigo -->\\r\\n<nav id="navbar1" class="navbar navbar-default  navbar-collapse navbar-static-top" role="tablist">\\r\\n  <div class="container">\\r\\n  \\t<center>\\r\\n\\t    <a href="#bienal" aria-controls="home" role="tab" data-toggle="tab"><button id="buttonNavbar" type="button" class="btn btn-default navbar-btn"><img src="http://image005.flaticon.com/1/svg/124/124743.svg"><p>Bienal</button></a>\\r\\n\\t    <a href="#urunday" aria-controls="profile" role="tab" data-toggle="tab"><button id="buttonNavbar" type="button" class="btn btn-default navbar-btn"><img src="http://image005.flaticon.com/1/svg/124/124784.svg"><p>Fundacion Urunday</button></a>\\r\\n\\t    <a href="#artistas" aria-controls="settings" role="tab" data-toggle="tab"><button id="buttonNavbar" type="button" class="btn btn-default navbar-btn "><img src="http://image005.flaticon.com/1/svg/123/123415.svg"><p>Artistas</span></button></a>\\r\\n  \\t</center>\\r\\n  </div>\\r\\n</nav>\\r\\n \\r\\n\\r\\n  <!-- Tab panes -->\\r\\n  <div class="tab-content">\\r\\n    <div role="tabpanel" class="tab-pane active" id="bienal">.HOLA ESTE ES EL PRIMER BUTTON</div>\\r\\n    <div role="tabpanel" class="tab-pane" id="urunday">\\r\\n    \\t<div class="caption">\\r\\n    \\t\\t<h3>ACA VA INFORMACION DE URUNDAY</h3>\\r\\n    \\t</div>\\r\\n    </div>\\r\\n    \\r\\n    <div role="tabpanel" class="tab-pane" id="artistas">\\r\\n\\t\\t<div class="row">\\r\\n\\t\\t  <div class="col-sm-6 col-md-4">\\r\\n\\t\\t    <div class="thumbnail">\\r\\n\\t\\t      <img src="http://www.bienaldelchaco.org/actividades/img/concurso_portada_alemania.png" height="500" width="500"alt="...">\\r\\n\\t\\t      <div class="caption">\\r\\n\\t\\t        <h3>Nils Hansen</h3>\\r\\n\\t\\t        <p>2015: Exhibici\\xc3\\xb3n Colectiva Arte en Papel Amateras, en Sof\\xc3\\xada, Bulgaria. Artista de \\xc3\\xa9lite en el ZBrushCentral.\\r\\n\\t\\t\\t\\t<p>2011: 1\\xc2\\xba Premio del P\\xc3\\xbablico en el 5to Simposio de Escultura en Piedra, Rold\\xc3\\xa1n, Argentina. Cortometraje Ecl\\xc3\\xadptico. Menci\\xc3\\xb3n de Honor en el Los Angeles Reel Film Festival. Selecci\\xc3\\xb3n Oficial en el Festival RMFF. Selecci\\xc3\\xb3n Oficial en el Sexto Festival de Proyecci\\xc3\\xb3n de Cortometrajes. Selecci\\xc3\\xb3n Oficial en el Festival de Cine Las Vegas. Selecci\\xc3\\xb3n Oficial para los Cortos de Wimbledon. Artista de \\xc3\\x89lite en el ZBrushCentral.\\r\\n\\t\\t\\t\\t<p>2009-2013: Beca de estudio del Gobierno Alem\\xc3\\xa1n.\\r\\n\\t\\t\\t\\t<p>2005-2008: Beca de trabajo Sesam, Italia, Uni\\xc3\\xb3n Europea.\\r\\n\\t\\t\\t\\t<p>2001-2003: Beca Weiterbildung, de la C\\xc3\\xa1mara de Artesanos, Colonia.\\r\\n\\t\\t\\t\\t<p>2003: 3\\xc2\\xba Mejor Aprendiz de Escultor, Alemania.</p>\\r\\n\\t\\t        <p><a href="#" class="btn btn-primary" role="button">Button</a> <a href="#" class="btn btn-default" role="button">Button</a></p>\\r\\n\\t\\t      </div>\\r\\n\\t\\t    </div>\\r\\n\\t\\t  </div>\\r\\n\\t\\t</div>\\r\\n    </div>\\r\\n  </div>\\r\\n\\r\\n</div>\\r\\n<!-- Script Creado por mi-->\\r\\n<script>\\r\\n$(\\\'#myTabs a\\\').click(function (e) {\\r\\n  e.preventDefault()\\r\\n  $(this).tab(\\\'show\\\')\\r\\n})\\r\\n$(\\\'#myTabs a[href="#urunday"]\\\').tab(\\\'show\\\') // Select tab by name\\r\\n$(\\\'#myTabs a:first\\\').tab(\\\'show\\\') // Select first tab\\r\\n$(\\\'#myTabs a:last\\\').tab(\\\'show\\\') // Select last tab\\r\\n$(\\\'#myTabs li:eq(2) a\\\').tab(\\\'show\\\') // Select third tab (0-indexed)\\r\\n</script>\\r\\n\\r\\n    <!-- The javascript =============================== -->\\r\\n    <!-- Script de Material Lite-->\\r\\n    <!--<script defer src="https://code.getmdl.io/1.1.3/material.min.js"></script>-->\\r\\n    <!-- Script de Bootstrap-->\\r\\n    <script src="\', escape=False)\nresponse.write(URL(\'static\',\'js/bootstrap.min.js\'))\nresponse.write(\'"></script>\\r\\n    <script src="\', escape=False)\nresponse.write(URL(\'static\',\'js/web2py-bootstrap3.js\'))\nresponse.write(\'"></script>\\r\\n    \', escape=False)\nresponse.write(\'\\r\\n    \', escape=False)\nif response.google_analytics_id:\n    response.write(\'\\r\\n    <!-- Analytics ==================================== -->\\r\\n    <script src="\', escape=False)\n    response.write(URL(\'static\',\'js/analytics.min.js\'))\n    response.write(\'"></script>\\r\\n    <script type="text/javascript">\\r\\n      analytics.initialize({\\r\\n      \\\'Google Analytics\\\':{trackingId:\\\'\', escape=False)\n    response.write(response.google_analytics_id)\n    response.write("\'}\\r\\n      });\\r\\n    </script>\\r\\n  </body>\\r\\n</html>", escape=False)'
p7
sS'snapshot'
p8
(dp9
S'exception'
p10
(dp11
S'__module__'
p12
S"'gluon.rocket'"
p13
sS'__getslice__'
p14
S"<method-wrapper '__getslice__' of SocketTimeout object>"
p15
sS'__str__'
p16
S"<method-wrapper '__str__' of SocketTimeout object>"
p17
sS'__reduce__'
p18
S'<built-in method __reduce__ of SocketTimeout object>'
p19
sS'__dict__'
p20
S'{}'
p21
sS'__sizeof__'
p22
S'<built-in method __sizeof__ of SocketTimeout object>'
p23
sS'__weakref__'
p24
S'None'
p25
sS'__init__'
p26
S"<method-wrapper '__init__' of SocketTimeout object>"
p27
sS'__setattr__'
p28
S"<method-wrapper '__setattr__' of SocketTimeout object>"
p29
sS'__reduce_ex__'
p30
S'<built-in method __reduce_ex__ of SocketTimeout object>'
p31
sS'__new__'
p32
S'<built-in method __new__ of type object>'
p33
sS'__format__'
p34
S'<built-in method __format__ of SocketTimeout object>'
p35
sS'__class__'
p36
S"<class 'gluon.rocket.SocketTimeout'>"
p37
sS'__doc__'
p38
S"'Exception for when a socket times out between requests.'"
p39
sS'__getitem__'
p40
S"<method-wrapper '__getitem__' of SocketTimeout object>"
p41
sS'__setstate__'
p42
S'<built-in method __setstate__ of SocketTimeout object>'
p43
sS'__getattribute__'
p44
S"<method-wrapper '__getattribute__' of SocketTimeout object>"
p45
sS'args'
p46
S"('Socket timed out before request.',)"
p47
sS'__subclasshook__'
p48
S'<built-in method __subclasshook__ of type object>'
p49
sS'__unicode__'
p50
S'<built-in method __unicode__ of SocketTimeout object>'
p51
sS'__delattr__'
p52
S"<method-wrapper '__delattr__' of SocketTimeout object>"
p53
sS'__repr__'
p54
S"<method-wrapper '__repr__' of SocketTimeout object>"
p55
sS'__hash__'
p56
S"<method-wrapper '__hash__' of SocketTimeout object>"
p57
ssS'evalue'
p58
S'Socket timed out before request.'
p59
sS'frames'
p60
(lp61
(dp62
S'file'
p63
S'C:\\Users\\Augusto\\Desktop\\Informatorio\\App-Bienal\\web2py\\gluon\\rocket.py'
p64
sS'dump'
p65
(dp66
S'self'
p67
S'<WSGIWorker(Thread-25, started daemon 1204)>'
p68
sS'conn'
p69
S'<gluon.rocket.Connection object>'
p70
sS'self.run_app'
p71
S'<bound method WSGIWorker.run_app of <WSGIWorker(Thread-25, started daemon 1204)>>'
p72
ssS'lnum'
p73
I1337
sS'lines'
p74
(dp75
I1332
S'            # Enter connection serve loop'
p76
sI1333
S'            while True:'
p77
sI1334
S'                if __debug__:'
p78
sI1335
S"                    self.err_log.debug('Serving a request')"
p79
sI1336
S'                try:'
p80
sI1337
S'                    self.run_app(conn)'
p81
sI1338
S'                except:'
p82
sI1339
S'                    exc = sys.exc_info()'
p83
sI1340
S'                    handled = self._handleError(*exc)'
p84
sI1341
S'                    if handled:'
p85
ssS'call'
p86
S'(self=<WSGIWorker(Thread-25, started daemon 1204)>)'
p87
sS'func'
p88
S'run'
p89
sa(dp90
g63
S'C:\\Users\\Augusto\\Desktop\\Informatorio\\App-Bienal\\web2py\\gluon\\rocket.py'
p91
sg65
(dp92
S'self'
p93
S'<WSGIWorker(Thread-25, started daemon 1204)>'
p94
sS'self.environ'
p95
S"{'HTTP_ACCEPT': 'text/html,application/xhtml+xml,application/xml;q=0.9,image/webp,*/*;q=0.8', 'HTTP_ACCEPT_ENCODING': 'gzip, deflate, sdch', 'HTTP_ACCEPT_LANGUAGE': 'es-ES,es;q=0.8', 'HTTP_CACHE_CONTROL': 'max-age=0', 'HTTP_CONNECTION': 'keep-alive', 'HTTP_COOKIE': 'session_id_appbienal=192.168.2.27-23b9f77a-1226-...192.168.2.27-e0f46674-e86f-4b96-9f34-603ac0e35f11', 'HTTP_HOST': '192.168.2.27:8000', 'HTTP_UPGRADE_INSECURE_REQUESTS': '1', 'HTTP_USER_AGENT': 'Mozilla/5.0 (Windows NT 6.3; WOW64) AppleWebKit/...L, like Gecko) Chrome/50.0.2661.102 Safari/537.36', 'PATH_INFO': '/InformarQ/infoController/index', ...}"
p96
sS'sock_file'
p97
S'<socket._fileobject object>'
p98
sS'environ'
p99
S'undefined'
p100
sS'self.build_environ'
p101
S'<bound method WSGIWorker.build_environ of <WSGIWorker(Thread-25, started daemon 1204)>>'
p102
sS'conn'
p103
S'<gluon.rocket.Connection object>'
p104
ssg73
I1830
sg74
(dp105
I1825
S'        else:'
p106
sI1826
S'            sock_file = conn.makefile(BUF_SIZE)'
p107
sI1827
S''
sI1828
S'        try:'
p108
sI1829
S'            # Read the headers and build our WSGI environment'
p109
sI1830
S'            self.environ = environ = self.build_environ(sock_file, conn)'
p110
sI1831
S''
sI1832
S'            # Handle 100 Continue'
p111
sI1833
S"            if environ.get('HTTP_EXPECT', '') == '100-continue':"
p112
sI1834
S"                res = environ['SERVER_PROTOCOL'] + ' 100 Continue\\r\\n\\r\\n'"
p113
ssg86
S'(self=<WSGIWorker(Thread-25, started daemon 1204)>, conn=<gluon.rocket.Connection object>)'
p114
sg88
S'run_app'
p115
sa(dp116
g63
S'C:\\Users\\Augusto\\Desktop\\Informatorio\\App-Bienal\\web2py\\gluon\\rocket.py'
p117
sg65
(dp118
S'sock_file'
p119
S'<socket._fileobject object>'
p120
sS'self.read_request_line'
p121
S'<bound method WSGIWorker.read_request_line of <WSGIWorker(Thread-25, started daemon 1204)>>'
p122
sS'self'
p123
S'<WSGIWorker(Thread-25, started daemon 1204)>'
p124
sS'request'
p125
g100
ssg73
I1650
sg74
(dp126
I1645
S'                                      "wsgiorg.futures": executor.futures})'
p127
sI1646
S''
sI1647
S'    def build_environ(self, sock_file, conn):'
p128
sI1648
S'        """ Build the execution environment. """'
p129
sI1649
S'        # Grab the request line'
p130
sI1650
S'        request = self.read_request_line(sock_file)'
p131
sI1651
S''
sI1652
S'        # Copy the Base Environment'
p132
sI1653
S'        environ = self.base_environ.copy()'
p133
sI1654
S''
ssg86
S'(self=<WSGIWorker(Thread-25, started daemon 1204)>, sock_file=<socket._fileobject object>, conn=<gluon.rocket.Connection object>)'
p134
sg88
S'build_environ'
p135
sa(dp136
g63
S'C:\\Users\\Augusto\\Desktop\\Informatorio\\App-Bienal\\web2py\\gluon\\rocket.py'
p137
sg65
(dp138
S'global SocketTimeout'
p139
S"<class 'gluon.rocket.SocketTimeout'>"
p140
ssg73
I1401
sg74
(dp141
I1396
S''
sI1397
S'                d = sock_file.readline()'
p142
sI1398
S'                if PY3K:'
p143
sI1399
S"                    d = d.decode('ISO-8859-1')"
p144
sI1400
S'        except socket.timeout:'
p145
sI1401
S"            raise SocketTimeout('Socket timed out before request.')"
p146
sI1402
S'        except TypeError:'
p147
sI1403
S'            raise SocketClosed('
p148
sI1404
S"                'SSL bug caused closure of socket.  See '"
p149
sI1405
S'                \'"https://groups.google.com/d/topic/web2py/P_Gw0JxWzCs".\')'
p150
ssg86
S'(self=<WSGIWorker(Thread-25, started daemon 1204)>, sock_file=<socket._fileobject object>)'
p151
sg88
S'read_request_line'
p152
sasS'pyver'
p153
S'Python 2.7.9: C:\\Users\\Augusto\\Desktop\\Informatorio\\App-Bienal\\web2py\\web2py.exe (prefix: )'
p154
sS'etype'
p155
S"<class 'gluon.rocket.SocketTimeout'>"
p156
sS'date'
p157
S'Thu Jun 02 11:12:18 2016'
p158
sS'locals'
p159
(dp160
S'sock_file'
p161
S'<socket._fileobject object>'
p162
sS'self'
p163
S'<WSGIWorker(Thread-25, started daemon 1204)>'
p164
sssS'traceback'
p165
S'Traceback (most recent call last):\n  File "C:\\Users\\Augusto\\Desktop\\Informatorio\\App-Bienal\\web2py\\gluon\\rocket.py", line 1337, in run\n    self.run_app(conn)\n  File "C:\\Users\\Augusto\\Desktop\\Informatorio\\App-Bienal\\web2py\\gluon\\rocket.py", line 1830, in run_app\n    self.environ = environ = self.build_environ(sock_file, conn)\n  File "C:\\Users\\Augusto\\Desktop\\Informatorio\\App-Bienal\\web2py\\gluon\\rocket.py", line 1650, in build_environ\n    request = self.read_request_line(sock_file)\n  File "C:\\Users\\Augusto\\Desktop\\Informatorio\\App-Bienal\\web2py\\gluon\\rocket.py", line 1401, in read_request_line\n    raise SocketTimeout(\'Socket timed out before request.\')\nSocketTimeout: Socket timed out before request.\n'
p166
s.